target datalayout = "e-m:e-p270:32:32-p271:32:32-p272:64:64-i64:64-i128:128-f80:128-n8:16:32:64-S128"
target triple = "x86_64-pc-linux-gnu"

%"class.icu_77::UnicodeString" = type { %"class.icu_77::Replaceable", %"union.icu_77::UnicodeString::StackBufferOrFields" }
%"class.icu_77::Replaceable" = type { %"class.icu_77::UObject" }
%"class.icu_77::UObject" = type { ptr }
%"union.icu_77::UnicodeString::StackBufferOrFields" = type { %struct.anon.0, [32 x i8] }
%struct.anon.0 = type { i16, i32, i32, ptr }
%"class.icu_77::RuleBasedNumberFormat" = type { %"class.icu_77::NumberFormat.base", ptr, ptr, i32, ptr, %"class.icu_77::Locale", ptr, ptr, ptr, ptr, i32, i8, ptr, ptr, %"class.icu_77::UnicodeString", i8, i8, i8, ptr }
%"class.icu_77::NumberFormat.base" = type <{ %"class.icu_77::Format", i8, [3 x i8], i32, i32, i32, i32, i8, i8, [4 x i16], [2 x i8], i32 }>
%"class.icu_77::Format" = type { %"class.icu_77::UObject", ptr, ptr }
%"class.icu_77::Locale" = type <{ %"class.icu_77::UObject", [12 x i8], [6 x i8], [4 x i8], [2 x i8], i32, [4 x i8], ptr, [157 x i8], [3 x i8], ptr, i8, [7 x i8] }>

; Function Attrs: inlinehint mustprogress nounwind uwtable
define linkonce_odr noundef i32 @_ZNK6icu_7713UnicodeString14getShortLengthEv(ptr noundef nonnull align 8 dereferenceable(64) %0) #4 comdat align 2 {
  %2 = alloca ptr, align 8
  store ptr %0, ptr %2, align 8, !tbaa !76
  %3 = load ptr, ptr %2, align 8
  %4 = getelementptr inbounds nuw %"class.icu_77::UnicodeString", ptr %3, i32 0, i32 1
  %5 = getelementptr inbounds nuw %struct.anon.0, ptr %4, i32 0, i32 0
  %6 = load i16, ptr %5, align 8, !tbaa !39
  %7 = sext i16 %6 to i32
  %8 = ashr i32 %7, 5
  ret i32 %8
}

; Function Attrs: inlinehint mustprogress nounwind uwtable
define linkonce_odr noundef signext i8 @_ZNK6icu_7713UnicodeString14hasShortLengthEv(ptr noundef nonnull align 8 dereferenceable(64) %0) #4 comdat align 2 {
  %2 = alloca ptr, align 8
  store ptr %0, ptr %2, align 8, !tbaa !76
  %3 = load ptr, ptr %2, align 8
  %4 = getelementptr inbounds nuw %"class.icu_77::UnicodeString", ptr %3, i32 0, i32 1
  %5 = getelementptr inbounds nuw %struct.anon.0, ptr %4, i32 0, i32 0
  %6 = load i16, ptr %5, align 8, !tbaa !39
  %7 = sext i16 %6 to i32
  %8 = icmp sge i32 %7, 0
  %9 = zext i1 %8 to i8
  ret i8 %9
}

; Function Attrs: inlinehint mustprogress nounwind uwtable
define internal noundef signext i8 @_ZL9U_SUCCESS10UErrorCode(i32 noundef %0) #4 {
  %2 = alloca i32, align 4
  store i32 %0, ptr %2, align 4, !tbaa !28
  %3 = load i32, ptr %2, align 4, !tbaa !28
  %4 = icmp sle i32 %3, 0
  %5 = zext i1 %4 to i8
  ret i8 %5
}

; Function Attrs: inlinehint mustprogress uwtable
define linkonce_odr noundef i32 @_ZNK6icu_7713UnicodeString6lengthEv(ptr noundef nonnull align 8 dereferenceable(64) %0) #6 comdat align 2 {
  %2 = alloca ptr, align 8
  store ptr %0, ptr %2, align 8, !tbaa !76
  %3 = load ptr, ptr %2, align 8
  %4 = call noundef signext i8 @_ZNK6icu_7713UnicodeString14hasShortLengthEv(ptr noundef nonnull align 8 dereferenceable(64) %3)
  %5 = icmp ne i8 %4, 0
  br i1 %5, label %6, label %8

6:                                                ; preds = %1
  %7 = call noundef i32 @_ZNK6icu_7713UnicodeString14getShortLengthEv(ptr noundef nonnull align 8 dereferenceable(64) %3)
  br label %12

8:                                                ; preds = %1
  %9 = getelementptr inbounds nuw %"class.icu_77::UnicodeString", ptr %3, i32 0, i32 1
  %10 = getelementptr inbounds nuw %struct.anon.0, ptr %9, i32 0, i32 1
  %11 = load i32, ptr %10, align 4, !tbaa !39
  br label %12

12:                                               ; preds = %8, %6
  %13 = phi i32 [ %7, %6 ], [ %11, %8 ]
  ret i32 %13
}

; Function Attrs: mustprogress uwtable
define noundef nonnull align 8 dereferenceable(64) ptr @_ZNK6icu_7721RuleBasedNumberFormat30adjustForCapitalizationContextEiRNS_13UnicodeStringER10UErrorCode(ptr noundef nonnull align 8 dereferenceable(456) %0, i32 noundef %1, ptr noundef nonnull align 8 dereferenceable(64) %2, ptr noundef nonnull align 4 dereferenceable(4) %3) #2 align 2 {
  %5 = alloca ptr, align 8
  %6 = alloca i32, align 4
  %7 = alloca ptr, align 8
  %8 = alloca ptr, align 8
  %9 = alloca i32, align 4
  %10 = alloca i32, align 4
  store ptr %0, ptr %5, align 8, !tbaa !3
  store i32 %1, ptr %6, align 4, !tbaa !12
  store ptr %2, ptr %7, align 8, !tbaa !76
  store ptr %3, ptr %8, align 8, !tbaa !51
  %11 = load ptr, ptr %5, align 8
  call void @llvm.lifetime.start.p0(i64 4, ptr %9) #14
  %12 = load ptr, ptr %8, align 8, !tbaa !51
  %13 = load ptr, ptr %11, align 8, !tbaa !10
  %14 = getelementptr inbounds ptr, ptr %13, i64 33
  %15 = load ptr, ptr %14, align 8
  %16 = call noundef i32 %15(ptr noundef nonnull align 8 dereferenceable(60) %11, i32 noundef 1, ptr noundef nonnull align 4 dereferenceable(4) %12)
  store i32 %16, ptr %9, align 4, !tbaa !180
  %17 = load i32, ptr %9, align 4, !tbaa !180
  %18 = icmp ne i32 %17, 256
  br i1 %18, label %19, label %65

19:                                               ; preds = %4
  %20 = load i32, ptr %6, align 4, !tbaa !12
  %21 = icmp eq i32 %20, 0
  br i1 %21, label %22, label %65

22:                                               ; preds = %19
  %23 = load ptr, ptr %7, align 8, !tbaa !76
  %24 = call noundef i32 @_ZNK6icu_7713UnicodeString6lengthEv(ptr noundef nonnull align 8 dereferenceable(64) %23)
  %25 = icmp sgt i32 %24, 0
  br i1 %25, label %26, label %65

26:                                               ; preds = %22
  call void @llvm.lifetime.start.p0(i64 4, ptr %10) #14
  %27 = load ptr, ptr %7, align 8, !tbaa !76
  %28 = call noundef i32 @_ZNK6icu_7713UnicodeString8char32AtEi(ptr noundef nonnull align 8 dereferenceable(64) %27, i32 noundef 0)
  store i32 %28, ptr %10, align 4, !tbaa !12
  %29 = load i32, ptr %10, align 4, !tbaa !12
  %30 = call signext i8 @u_islower_77(i32 noundef %29)
  %31 = icmp ne i8 %30, 0
  br i1 %31, label %32, label %64

32:                                               ; preds = %26
  %33 = load ptr, ptr %8, align 8, !tbaa !51
  %34 = load i32, ptr %33, align 4, !tbaa !28
  %35 = call noundef signext i8 @_ZL9U_SUCCESS10UErrorCode(i32 noundef %34)
  %36 = icmp ne i8 %35, 0
  br i1 %36, label %37, label %64

37:                                               ; preds = %32
  %38 = getelementptr inbounds nuw %"class.icu_77::RuleBasedNumberFormat", ptr %11, i32 0, i32 18
  %39 = load ptr, ptr %38, align 8, !tbaa !118
  %40 = icmp ne ptr %39, null
  br i1 %40, label %41, label %64

41:                                               ; preds = %37
  %42 = load i32, ptr %9, align 4, !tbaa !180
  %43 = icmp eq i32 %42, 258
  br i1 %43, label %58, label %44

44:                                               ; preds = %41
  %45 = load i32, ptr %9, align 4, !tbaa !180
  %46 = icmp eq i32 %45, 259
  br i1 %46, label %47, label %51

47:                                               ; preds = %44
  %48 = getelementptr inbounds nuw %"class.icu_77::RuleBasedNumberFormat", ptr %11, i32 0, i32 16
  %49 = load i8, ptr %48, align 1, !tbaa !116
  %50 = icmp ne i8 %49, 0
  br i1 %50, label %58, label %51

51:                                               ; preds = %47, %44
  %52 = load i32, ptr %9, align 4, !tbaa !180
  %53 = icmp eq i32 %52, 260
  br i1 %53, label %54, label %64

54:                                               ; preds = %51
  %55 = getelementptr inbounds nuw %"class.icu_77::RuleBasedNumberFormat", ptr %11, i32 0, i32 17
  %56 = load i8, ptr %55, align 2, !tbaa !117
  %57 = icmp ne i8 %56, 0
  br i1 %57, label %58, label %64

58:                                               ; preds = %54, %47, %41
  %59 = load ptr, ptr %7, align 8, !tbaa !76
  %60 = getelementptr inbounds nuw %"class.icu_77::RuleBasedNumberFormat", ptr %11, i32 0, i32 18
  %61 = load ptr, ptr %60, align 8, !tbaa !118
  %62 = getelementptr inbounds nuw %"class.icu_77::RuleBasedNumberFormat", ptr %11, i32 0, i32 5
  %63 = call noundef nonnull align 8 dereferenceable(64) ptr @_ZN6icu_7713UnicodeString7toTitleEPNS_13BreakIteratorERKNS_6LocaleEj(ptr noundef nonnull align 8 dereferenceable(64) %59, ptr noundef %61, ptr noundef nonnull align 8 dereferenceable(217) %62, i32 noundef 768)
  br label %64

64:                                               ; preds = %58, %54, %51, %37, %32, %26
  call void @llvm.lifetime.end.p0(i64 4, ptr %10) #14
  br label %65

65:                                               ; preds = %64, %22, %19, %4
  %66 = load ptr, ptr %7, align 8, !tbaa !76
  call void @llvm.lifetime.end.p0(i64 4, ptr %9) #14
  ret ptr %66
}