; Function Attrs: mustprogress uwtable
define noundef nonnull align 8 dereferenceable(64) ptr @_ZNK6icu_7721RuleBasedNumberFormat30adjustForCapitalizationContextEiRNS_13UnicodeStringER10UErrorCode(ptr noundef nonnull align 8 dereferenceable(456) %0, i32 noundef %1, ptr noundef nonnull returned align 8 dereferenceable(64) %2, ptr noundef nonnull align 4 dereferenceable(4) %3) local_unnamed_addr #3 align 2 {
  %5 = load ptr, ptr %0, align 8, !tbaa !3
  %6 = getelementptr inbounds nuw i8, ptr %5, i64 264
  %7 = load ptr, ptr %6, align 8
  %8 = tail call noundef i32 %7(ptr noundef nonnull align 8 dereferenceable(60) %0, i32 noundef 1, ptr noundef nonnull align 4 dereferenceable(4) %3)
  %9 = icmp ne i32 %8, 256
  %10 = icmp eq i32 %1, 0
  %or.cond = and i1 %10, %9
  br i1 %or.cond, label %11, label %37

11:                                               ; preds = %4
  %12 = getelementptr inbounds nuw i8, ptr %2, i64 8
  %13 = load i16, ptr %12, align 8, !tbaa !55
  %14 = icmp slt i16 %13, 0
  %15 = ashr i16 %13, 5
  %16 = sext i16 %15 to i32
  %17 = getelementptr inbounds nuw i8, ptr %2, i64 12
  %18 = load i32, ptr %17, align 4
  %19 = select i1 %14, i32 %18, i32 %16
  %20 = icmp sgt i32 %19, 0
  br i1 %20, label %21, label %37

21:                                               ; preds = %11
  %22 = tail call noundef i32 @_ZNK6icu_7713UnicodeString8char32AtEi(ptr noundef nonnull align 8 dereferenceable(64) %2, i32 noundef 0)
  %23 = tail call signext i8 @u_islower_77(i32 noundef %22)
  %.not = icmp eq i8 %23, 0
  %24 = load i32, ptr %3, align 4
  %25 = icmp sgt i32 %24, 0
  %or.cond21 = select i1 %.not, i1 true, i1 %25
  br i1 %or.cond21, label %37, label %26

26:                                               ; preds = %21
  %27 = getelementptr inbounds nuw i8, ptr %0, i64 448
  %28 = load ptr, ptr %27, align 8, !tbaa !89
  %.not14 = icmp eq ptr %28, null
  br i1 %.not14, label %37, label %29

29:                                               ; preds = %26
  switch i32 %8, label %37 [
    i32 258, label %34
    i32 259, label %30
    i32 260, label %33
  ]

30:                                               ; preds = %29
  %31 = getelementptr inbounds nuw i8, ptr %0, i64 441
  %32 = load i8, ptr %31, align 1, !tbaa !87
  %.not15 = icmp eq i8 %32, 0
  br i1 %.not15, label %37, label %34

33:                                               ; preds = %29
  %.old = getelementptr inbounds nuw i8, ptr %0, i64 442
  %.old17 = load i8, ptr %.old, align 2, !tbaa !88
  %.not16.old = icmp eq i8 %.old17, 0
  br i1 %.not16.old, label %37, label %34

34:                                               ; preds = %29, %33, %30
  %35 = getelementptr inbounds nuw i8, ptr %0, i64 96
  %36 = tail call noundef nonnull align 8 dereferenceable(64) ptr @_ZN6icu_7713UnicodeString7toTitleEPNS_13BreakIteratorERKNS_6LocaleEj(ptr noundef nonnull align 8 dereferenceable(64) %2, ptr noundef nonnull %28, ptr noundef nonnull align 8 dereferenceable(217) %35, i32 noundef 768)
  br label %37

37:                                               ; preds = %30, %21, %26, %33, %34, %29, %11, %4
  ret ptr %2
}